target datalayout = "e-m:e-p270:32:32-p271:32:32-p272:64:64-i64:64-i128:128-f80:128-n8:16:32:64-S128"
target triple = "x86_64-unknown-linux-gnu"

%struct.iovec = type { ptr, i64 }
%struct.QEMUIOVector = type { ptr, i32, %union.anon }
%union.anon = type { %struct.anon }
%struct.anon = type { i32, %struct.iovec }
%struct.anon.0 = type { [12 x i8], i64 }
%struct.IOVectorSortElem = type { i32, ptr, ptr }

@.str.1 = private unnamed_addr constant [19 x i8] c"../qemu/util/iov.c\00", align 1
@.str.5 = private unnamed_addr constant [19 x i8] c"qiov->nalloc != -1\00", align 1
@__PRETTY_FUNCTION__.qemu_iovec_add = private unnamed_addr constant [52 x i8] c"void qemu_iovec_add(QEMUIOVector *, void *, size_t)\00", align 1

; Function Attrs: nounwind sspstrong uwtable
define internal void @g_autoptr_cleanup_generic_gfree(ptr noundef %p) #0 {
entry:
  %p.addr = alloca ptr, align 8
  %pp = alloca ptr, align 8
  store ptr %p, ptr %p.addr, align 8
  %0 = load ptr, ptr %p.addr, align 8
  store ptr %0, ptr %pp, align 8
  %1 = load ptr, ptr %pp, align 8
  %2 = load ptr, ptr %1, align 8
  call void @g_free(ptr noundef %2)
  ret void
}

; Function Attrs: nounwind sspstrong uwtable
define dso_local void @qemu_iovec_add(ptr noundef %qiov, ptr noundef %base, i64 noundef %len) #0 {
entry:
  %qiov.addr = alloca ptr, align 8
  %base.addr = alloca ptr, align 8
  %len.addr = alloca i64, align 8
  store ptr %qiov, ptr %qiov.addr, align 8
  store ptr %base, ptr %base.addr, align 8
  store i64 %len, ptr %len.addr, align 8
  %0 = load ptr, ptr %qiov.addr, align 8
  %1 = getelementptr inbounds %struct.QEMUIOVector, ptr %0, i32 0, i32 2
  %nalloc = getelementptr inbounds %struct.anon, ptr %1, i32 0, i32 0
  %2 = load i32, ptr %nalloc, align 8
  %cmp = icmp ne i32 %2, -1
  br i1 %cmp, label %if.then, label %if.else

if.then:                                          ; preds = %entry
  br label %if.end

if.else:                                          ; preds = %entry
  call void @__assert_fail(ptr noundef @.str.5, ptr noundef @.str.1, i32 noundef 297, ptr noundef @__PRETTY_FUNCTION__.qemu_iovec_add) #9
  unreachable

if.end:                                           ; preds = %if.then
  %3 = load ptr, ptr %qiov.addr, align 8
  %niov = getelementptr inbounds %struct.QEMUIOVector, ptr %3, i32 0, i32 1
  %4 = load i32, ptr %niov, align 8
  %5 = load ptr, ptr %qiov.addr, align 8
  %6 = getelementptr inbounds %struct.QEMUIOVector, ptr %5, i32 0, i32 2
  %nalloc1 = getelementptr inbounds %struct.anon, ptr %6, i32 0, i32 0
  %7 = load i32, ptr %nalloc1, align 8
  %cmp2 = icmp eq i32 %4, %7
  br i1 %cmp2, label %if.then3, label %if.end8

if.then3:                                         ; preds = %if.end
  %8 = load ptr, ptr %qiov.addr, align 8
  %9 = getelementptr inbounds %struct.QEMUIOVector, ptr %8, i32 0, i32 2
  %nalloc4 = getelementptr inbounds %struct.anon, ptr %9, i32 0, i32 0
  %10 = load i32, ptr %nalloc4, align 8
  %mul = mul i32 2, %10
  %add = add i32 %mul, 1
  %11 = load ptr, ptr %qiov.addr, align 8
  %12 = getelementptr inbounds %struct.QEMUIOVector, ptr %11, i32 0, i32 2
  %nalloc5 = getelementptr inbounds %struct.anon, ptr %12, i32 0, i32 0
  store i32 %add, ptr %nalloc5, align 8
  %13 = load ptr, ptr %qiov.addr, align 8
  %iov = getelementptr inbounds %struct.QEMUIOVector, ptr %13, i32 0, i32 0
  %14 = load ptr, ptr %iov, align 8
  %15 = load ptr, ptr %qiov.addr, align 8
  %16 = getelementptr inbounds %struct.QEMUIOVector, ptr %15, i32 0, i32 2
  %nalloc6 = getelementptr inbounds %struct.anon, ptr %16, i32 0, i32 0
  %17 = load i32, ptr %nalloc6, align 8
  %conv = sext i32 %17 to i64
  %call = call ptr @g_realloc_n(ptr noundef %14, i64 noundef %conv, i64 noundef 16)
  %18 = load ptr, ptr %qiov.addr, align 8
  %iov7 = getelementptr inbounds %struct.QEMUIOVector, ptr %18, i32 0, i32 0
  store ptr %call, ptr %iov7, align 8
  br label %if.end8

if.end8:                                          ; preds = %if.then3, %if.end
  %19 = load ptr, ptr %base.addr, align 8
  %20 = load ptr, ptr %qiov.addr, align 8
  %iov9 = getelementptr inbounds %struct.QEMUIOVector, ptr %20, i32 0, i32 0
  %21 = load ptr, ptr %iov9, align 8
  %22 = load ptr, ptr %qiov.addr, align 8
  %niov10 = getelementptr inbounds %struct.QEMUIOVector, ptr %22, i32 0, i32 1
  %23 = load i32, ptr %niov10, align 8
  %idxprom = sext i32 %23 to i64
  %arrayidx = getelementptr %struct.iovec, ptr %21, i64 %idxprom
  %iov_base = getelementptr inbounds %struct.iovec, ptr %arrayidx, i32 0, i32 0
  store ptr %19, ptr %iov_base, align 8
  %24 = load i64, ptr %len.addr, align 8
  %25 = load ptr, ptr %qiov.addr, align 8
  %iov11 = getelementptr inbounds %struct.QEMUIOVector, ptr %25, i32 0, i32 0
  %26 = load ptr, ptr %iov11, align 8
  %27 = load ptr, ptr %qiov.addr, align 8
  %niov12 = getelementptr inbounds %struct.QEMUIOVector, ptr %27, i32 0, i32 1
  %28 = load i32, ptr %niov12, align 8
  %idxprom13 = sext i32 %28 to i64
  %arrayidx14 = getelementptr %struct.iovec, ptr %26, i64 %idxprom13
  %iov_len = getelementptr inbounds %struct.iovec, ptr %arrayidx14, i32 0, i32 1
  store i64 %24, ptr %iov_len, align 8
  %29 = load i64, ptr %len.addr, align 8
  %30 = load ptr, ptr %qiov.addr, align 8
  %31 = getelementptr inbounds %struct.QEMUIOVector, ptr %30, i32 0, i32 2
  %size = getelementptr inbounds %struct.anon.0, ptr %31, i32 0, i32 1
  %32 = load i64, ptr %size, align 8
  %add15 = add i64 %32, %29
  store i64 %add15, ptr %size, align 8
  %33 = load ptr, ptr %qiov.addr, align 8
  %niov16 = getelementptr inbounds %struct.QEMUIOVector, ptr %33, i32 0, i32 1
  %34 = load i32, ptr %niov16, align 8
  %inc = add i32 %34, 1
  store i32 %inc, ptr %niov16, align 8
  ret void
}

; Function Attrs: nounwind sspstrong uwtable
define dso_local void @qemu_iovec_clone(ptr noundef %dest, ptr noundef %src, ptr noundef %buf) #0 {
entry:
  %dest.addr = alloca ptr, align 8
  %src.addr = alloca ptr, align 8
  %buf.addr = alloca ptr, align 8
  %sortelems = alloca ptr, align 8
  %last_end = alloca ptr, align 8
  %i = alloca i32, align 4
  %cur = alloca ptr, align 8
  %rewind = alloca i64, align 8
  %_a12 = alloca i64, align 8
  %_b13 = alloca i64, align 8
  %tmp = alloca i64, align 8
  %_a14 = alloca ptr, align 8
  %_b15 = alloca ptr, align 8
  %tmp29 = alloca ptr, align 8
  store ptr %dest, ptr %dest.addr, align 8
  store ptr %src, ptr %src.addr, align 8
  store ptr %buf, ptr %buf.addr, align 8
  %0 = load ptr, ptr %src.addr, align 8
  %niov = getelementptr inbounds %struct.QEMUIOVector, ptr %0, i32 0, i32 1
  %1 = load i32, ptr %niov, align 8
  %conv = sext i32 %1 to i64
  %call = call noalias ptr @g_malloc_n(i64 noundef %conv, i64 noundef 24) #10
  store ptr %call, ptr %sortelems, align 8
  store i32 0, ptr %i, align 4
  br label %for.cond

for.cond:                                         ; preds = %for.inc, %entry
  %2 = load i32, ptr %i, align 4
  %3 = load ptr, ptr %src.addr, align 8
  %niov1 = getelementptr inbounds %struct.QEMUIOVector, ptr %3, i32 0, i32 1
  %4 = load i32, ptr %niov1, align 8
  %cmp = icmp slt i32 %2, %4
  br i1 %cmp, label %for.body, label %for.end

for.body:                                         ; preds = %for.cond
  %5 = load i32, ptr %i, align 4
  %6 = load ptr, ptr %sortelems, align 8
  %7 = load i32, ptr %i, align 4
  %idxprom = sext i32 %7 to i64
  %arrayidx = getelementptr %struct.IOVectorSortElem, ptr %6, i64 %idxprom
  %src_index = getelementptr inbounds %struct.IOVectorSortElem, ptr %arrayidx, i32 0, i32 0
  store i32 %5, ptr %src_index, align 8
  %8 = load ptr, ptr %src.addr, align 8
  %iov = getelementptr inbounds %struct.QEMUIOVector, ptr %8, i32 0, i32 0
  %9 = load ptr, ptr %iov, align 8
  %10 = load i32, ptr %i, align 4
  %idxprom3 = sext i32 %10 to i64
  %arrayidx4 = getelementptr %struct.iovec, ptr %9, i64 %idxprom3
  %11 = load ptr, ptr %sortelems, align 8
  %12 = load i32, ptr %i, align 4
  %idxprom5 = sext i32 %12 to i64
  %arrayidx6 = getelementptr %struct.IOVectorSortElem, ptr %11, i64 %idxprom5
  %src_iov = getelementptr inbounds %struct.IOVectorSortElem, ptr %arrayidx6, i32 0, i32 1
  store ptr %arrayidx4, ptr %src_iov, align 8
  br label %for.inc

for.inc:                                          ; preds = %for.body
  %13 = load i32, ptr %i, align 4
  %inc = add i32 %13, 1
  store i32 %inc, ptr %i, align 4
  br label %for.cond, !llvm.loop !22

for.end:                                          ; preds = %for.cond
  %14 = load ptr, ptr %sortelems, align 8
  %15 = load ptr, ptr %src.addr, align 8
  %niov7 = getelementptr inbounds %struct.QEMUIOVector, ptr %15, i32 0, i32 1
  %16 = load i32, ptr %niov7, align 8
  %conv8 = sext i32 %16 to i64
  call void @qsort(ptr noundef %14, i64 noundef %conv8, i64 noundef 24, ptr noundef @sortelem_cmp_src_base)
  store ptr null, ptr %last_end, align 8
  store i32 0, ptr %i, align 4
  br label %for.cond9

for.cond9:                                        ; preds = %for.inc36, %for.end
  %17 = load i32, ptr %i, align 4
  %18 = load ptr, ptr %src.addr, align 8
  %niov10 = getelementptr inbounds %struct.QEMUIOVector, ptr %18, i32 0, i32 1
  %19 = load i32, ptr %niov10, align 8
  %cmp11 = icmp slt i32 %17, %19
  br i1 %cmp11, label %for.body13, label %for.end38

for.body13:                                       ; preds = %for.cond9
  %20 = load ptr, ptr %sortelems, align 8
  %21 = load i32, ptr %i, align 4
  %idxprom14 = sext i32 %21 to i64
  %arrayidx15 = getelementptr %struct.IOVectorSortElem, ptr %20, i64 %idxprom14
  %src_iov16 = getelementptr inbounds %struct.IOVectorSortElem, ptr %arrayidx15, i32 0, i32 1
  %22 = load ptr, ptr %src_iov16, align 8
  store ptr %22, ptr %cur, align 8
  store i64 0, ptr %rewind, align 8
  %23 = load ptr, ptr %last_end, align 8
  %tobool = icmp ne ptr %23, null
  br i1 %tobool, label %land.lhs.true, label %if.end

land.lhs.true:                                    ; preds = %for.body13
  %24 = load ptr, ptr %last_end, align 8
  %25 = load ptr, ptr %cur, align 8
  %iov_base = getelementptr inbounds %struct.iovec, ptr %25, i32 0, i32 0
  %26 = load ptr, ptr %iov_base, align 8
  %cmp17 = icmp ugt ptr %24, %26
  br i1 %cmp17, label %if.then, label %if.end

if.then:                                          ; preds = %land.lhs.true
  %27 = load ptr, ptr %last_end, align 8
  %28 = load ptr, ptr %cur, align 8
  %iov_base19 = getelementptr inbounds %struct.iovec, ptr %28, i32 0, i32 0
  %29 = load ptr, ptr %iov_base19, align 8
  %sub.ptr.lhs.cast = ptrtoint ptr %27 to i64
  %sub.ptr.rhs.cast = ptrtoint ptr %29 to i64
  %sub.ptr.sub = sub i64 %sub.ptr.lhs.cast, %sub.ptr.rhs.cast
  store i64 %sub.ptr.sub, ptr %rewind, align 8
  br label %if.end

if.end:                                           ; preds = %if.then, %land.lhs.true, %for.body13
  %30 = load ptr, ptr %buf.addr, align 8
  %31 = load i64, ptr %rewind, align 8
  %idx.neg = sub i64 0, %31
  %add.ptr = getelementptr i8, ptr %30, i64 %idx.neg
  %32 = load ptr, ptr %sortelems, align 8
  %33 = load i32, ptr %i, align 4
  %idxprom20 = sext i32 %33 to i64
  %arrayidx21 = getelementptr %struct.IOVectorSortElem, ptr %32, i64 %idxprom20
  %dest_base = getelementptr inbounds %struct.IOVectorSortElem, ptr %arrayidx21, i32 0, i32 2
  store ptr %add.ptr, ptr %dest_base, align 8
  %34 = load ptr, ptr %cur, align 8
  %iov_len = getelementptr inbounds %struct.iovec, ptr %34, i32 0, i32 1
  %35 = load i64, ptr %iov_len, align 8
  %36 = load i64, ptr %rewind, align 8
  store i64 %36, ptr %_a12, align 8
  %37 = load ptr, ptr %cur, align 8
  %iov_len22 = getelementptr inbounds %struct.iovec, ptr %37, i32 0, i32 1
  %38 = load i64, ptr %iov_len22, align 8
  store i64 %38, ptr %_b13, align 8
  %39 = load i64, ptr %_a12, align 8
  %40 = load i64, ptr %_b13, align 8
  %cmp23 = icmp ult i64 %39, %40
  br i1 %cmp23, label %cond.true, label %cond.false

cond.true:                                        ; preds = %if.end
  %41 = load i64, ptr %_a12, align 8
  br label %cond.end

cond.false:                                       ; preds = %if.end
  %42 = load i64, ptr %_b13, align 8
  br label %cond.end

cond.end:                                         ; preds = %cond.false, %cond.true
  %cond = phi i64 [ %41, %cond.true ], [ %42, %cond.false ]
  store i64 %cond, ptr %tmp, align 8
  %43 = load i64, ptr %tmp, align 8
  %sub = sub i64 %35, %43
  %44 = load ptr, ptr %buf.addr, align 8
  %add.ptr25 = getelementptr i8, ptr %44, i64 %sub
  store ptr %add.ptr25, ptr %buf.addr, align 8
  %45 = load ptr, ptr %cur, align 8
  %iov_base26 = getelementptr inbounds %struct.iovec, ptr %45, i32 0, i32 0
  %46 = load ptr, ptr %iov_base26, align 8
  %47 = load ptr, ptr %cur, align 8
  %iov_len27 = getelementptr inbounds %struct.iovec, ptr %47, i32 0, i32 1
  %48 = load i64, ptr %iov_len27, align 8
  %add.ptr28 = getelementptr i8, ptr %46, i64 %48
  store ptr %add.ptr28, ptr %_a14, align 8
  %49 = load ptr, ptr %last_end, align 8
  store ptr %49, ptr %_b15, align 8
  %50 = load ptr, ptr %_a14, align 8
  %51 = load ptr, ptr %_b15, align 8
  %cmp30 = icmp ugt ptr %50, %51
  br i1 %cmp30, label %cond.true32, label %cond.false33

cond.true32:                                      ; preds = %cond.end
  %52 = load ptr, ptr %_a14, align 8
  br label %cond.end34

cond.false33:                                     ; preds = %cond.end
  %53 = load ptr, ptr %_b15, align 8
  br label %cond.end34

cond.end34:                                       ; preds = %cond.false33, %cond.true32
  %cond35 = phi ptr [ %52, %cond.true32 ], [ %53, %cond.false33 ]
  store ptr %cond35, ptr %tmp29, align 8
  %54 = load ptr, ptr %tmp29, align 8
  store ptr %54, ptr %last_end, align 8
  br label %for.inc36

for.inc36:                                        ; preds = %cond.end34
  %55 = load i32, ptr %i, align 4
  %inc37 = add i32 %55, 1
  store i32 %inc37, ptr %i, align 4
  br label %for.cond9, !llvm.loop !23

for.end38:                                        ; preds = %for.cond9
  %56 = load ptr, ptr %sortelems, align 8
  %57 = load ptr, ptr %src.addr, align 8
  %niov39 = getelementptr inbounds %struct.QEMUIOVector, ptr %57, i32 0, i32 1
  %58 = load i32, ptr %niov39, align 8
  %conv40 = sext i32 %58 to i64
  call void @qsort(ptr noundef %56, i64 noundef %conv40, i64 noundef 24, ptr noundef @sortelem_cmp_src_index)
  store i32 0, ptr %i, align 4
  br label %for.cond41

for.cond41:                                       ; preds = %for.inc53, %for.end38
  %59 = load i32, ptr %i, align 4
  %60 = load ptr, ptr %src.addr, align 8
  %niov42 = getelementptr inbounds %struct.QEMUIOVector, ptr %60, i32 0, i32 1
  %61 = load i32, ptr %niov42, align 8
  %cmp43 = icmp slt i32 %59, %61
  br i1 %cmp43, label %for.body45, label %for.end55

for.body45:                                       ; preds = %for.cond41
  %62 = load ptr, ptr %dest.addr, align 8
  %63 = load ptr, ptr %sortelems, align 8
  %64 = load i32, ptr %i, align 4
  %idxprom46 = sext i32 %64 to i64
  %arrayidx47 = getelementptr %struct.IOVectorSortElem, ptr %63, i64 %idxprom46
  %dest_base48 = getelementptr inbounds %struct.IOVectorSortElem, ptr %arrayidx47, i32 0, i32 2
  %65 = load ptr, ptr %dest_base48, align 8
  %66 = load ptr, ptr %src.addr, align 8
  %iov49 = getelementptr inbounds %struct.QEMUIOVector, ptr %66, i32 0, i32 0
  %67 = load ptr, ptr %iov49, align 8
  %68 = load i32, ptr %i, align 4
  %idxprom50 = sext i32 %68 to i64
  %arrayidx51 = getelementptr %struct.iovec, ptr %67, i64 %idxprom50
  %iov_len52 = getelementptr inbounds %struct.iovec, ptr %arrayidx51, i32 0, i32 1
  %69 = load i64, ptr %iov_len52, align 8
  call void @qemu_iovec_add(ptr noundef %62, ptr noundef %65, i64 noundef %69)
  br label %for.inc53

for.inc53:                                        ; preds = %for.body45
  %70 = load i32, ptr %i, align 4
  %inc54 = add i32 %70, 1
  store i32 %inc54, ptr %i, align 4
  br label %for.cond41, !llvm.loop !24

for.end55:                                        ; preds = %for.cond41
  call void @g_autoptr_cleanup_generic_gfree(ptr noundef %sortelems)
  ret void
}