; Function Attrs: nounwind sspstrong uwtable
define dso_local void @qemu_iovec_clone(ptr noundef captures(none) %dest, ptr noundef readonly captures(none) %src, ptr noundef %buf) local_unnamed_addr #0 {
entry:
  %niov = getelementptr inbounds nuw i8, ptr %src, i64 8
  %0 = load i32, ptr %niov, align 8
  %conv = sext i32 %0 to i64
  %call = tail call noalias ptr @g_malloc_n(i64 noundef %conv, i64 noundef 24) #18
  %1 = load i32, ptr %niov, align 8
  %cmp44 = icmp sgt i32 %1, 0
  br i1 %cmp44, label %for.body.lr.ph, label %for.end

for.body.lr.ph:                                   ; preds = %entry
  %2 = load ptr, ptr %src, align 8
  %wide.trip.count = zext nneg i32 %1 to i64
  br label %for.body

for.body:                                         ; preds = %for.body.lr.ph, %for.body
  %indvars.iv = phi i64 [ 0, %for.body.lr.ph ], [ %indvars.iv.next, %for.body ]
  %arrayidx = getelementptr %struct.IOVectorSortElem, ptr %call, i64 %indvars.iv
  %3 = trunc nuw nsw i64 %indvars.iv to i32
  store i32 %3, ptr %arrayidx, align 8
  %arrayidx4 = getelementptr %struct.iovec, ptr %2, i64 %indvars.iv
  %src_iov = getelementptr %struct.IOVectorSortElem, ptr %call, i64 %indvars.iv, i32 1
  store ptr %arrayidx4, ptr %src_iov, align 8
  %indvars.iv.next = add nuw nsw i64 %indvars.iv, 1
  %exitcond.not = icmp eq i64 %indvars.iv.next, %wide.trip.count
  br i1 %exitcond.not, label %for.end, label %for.body, !llvm.loop !22

for.end:                                          ; preds = %for.body, %entry
  %conv8 = sext i32 %1 to i64
  tail call void @qsort(ptr noundef %call, i64 noundef %conv8, i64 noundef 24, ptr noundef nonnull @sortelem_cmp_src_base) #19
  %4 = load i32, ptr %niov, align 8
  %cmp1146 = icmp sgt i32 %4, 0
  br i1 %cmp1146, label %for.body13.preheader, label %for.end38

for.body13.preheader:                             ; preds = %for.end
  %wide.trip.count57 = zext nneg i32 %4 to i64
  br label %for.body13

for.body13:                                       ; preds = %for.body13.preheader, %if.end
  %indvars.iv54 = phi i64 [ 0, %for.body13.preheader ], [ %indvars.iv.next55, %if.end ]
  %buf.addr.049 = phi ptr [ %buf, %for.body13.preheader ], [ %add.ptr25, %if.end ]
  %last_end.048 = phi ptr [ null, %for.body13.preheader ], [ %cond35, %if.end ]
  %src_iov16 = getelementptr %struct.IOVectorSortElem, ptr %call, i64 %indvars.iv54, i32 1
  %5 = load ptr, ptr %src_iov16, align 8
  %tobool.not = icmp eq ptr %last_end.048, null
  br i1 %tobool.not, label %if.end, label %land.lhs.true

land.lhs.true:                                    ; preds = %for.body13
  %6 = load ptr, ptr %5, align 8
  %cmp17 = icmp ugt ptr %last_end.048, %6
  br i1 %cmp17, label %if.then, label %if.end

if.then:                                          ; preds = %land.lhs.true
  %sub.ptr.lhs.cast = ptrtoint ptr %last_end.048 to i64
  %sub.ptr.rhs.cast = ptrtoint ptr %6 to i64
  %sub.ptr.sub = sub i64 %sub.ptr.lhs.cast, %sub.ptr.rhs.cast
  br label %if.end

if.end:                                           ; preds = %if.then, %land.lhs.true, %for.body13
  %rewind.0 = phi i64 [ %sub.ptr.sub, %if.then ], [ 0, %land.lhs.true ], [ 0, %for.body13 ]
  %idx.neg = sub i64 0, %rewind.0
  %add.ptr = getelementptr i8, ptr %buf.addr.049, i64 %idx.neg
  %dest_base = getelementptr %struct.IOVectorSortElem, ptr %call, i64 %indvars.iv54, i32 2
  store ptr %add.ptr, ptr %dest_base, align 8
  %iov_len = getelementptr inbounds nuw i8, ptr %5, i64 8
  %7 = load i64, ptr %iov_len, align 8
  %sub = tail call i64 @llvm.usub.sat.i64(i64 %7, i64 %rewind.0)
  %add.ptr25 = getelementptr i8, ptr %buf.addr.049, i64 %sub
  %8 = load ptr, ptr %5, align 8
  %add.ptr28 = getelementptr i8, ptr %8, i64 %7
  %cmp30 = icmp ugt ptr %add.ptr28, %last_end.048
  %cond35 = select i1 %cmp30, ptr %add.ptr28, ptr %last_end.048
  %indvars.iv.next55 = add nuw nsw i64 %indvars.iv54, 1
  %exitcond58.not = icmp eq i64 %indvars.iv.next55, %wide.trip.count57
  br i1 %exitcond58.not, label %for.end38, label %for.body13, !llvm.loop !23

for.end38:                                        ; preds = %if.end, %for.end
  %conv40 = sext i32 %4 to i64
  tail call void @qsort(ptr noundef %call, i64 noundef %conv40, i64 noundef 24, ptr noundef nonnull @sortelem_cmp_src_index) #19
  %9 = load i32, ptr %niov, align 8
  %cmp4351 = icmp sgt i32 %9, 0
  br i1 %cmp4351, label %for.body45.lr.ph, label %for.end55

for.body45.lr.ph:                                 ; preds = %for.end38
  %10 = getelementptr inbounds nuw i8, ptr %dest, i64 16
  %niov.i = getelementptr inbounds nuw i8, ptr %dest, i64 8
  %size.i = getelementptr inbounds nuw i8, ptr %dest, i64 32
  br label %for.body45

for.body45:                                       ; preds = %for.body45.lr.ph, %qemu_iovec_add.exit
  %indvars.iv59 = phi i64 [ 0, %for.body45.lr.ph ], [ %indvars.iv.next60, %qemu_iovec_add.exit ]
  %dest_base48 = getelementptr %struct.IOVectorSortElem, ptr %call, i64 %indvars.iv59, i32 2
  %11 = load ptr, ptr %dest_base48, align 8
  %12 = load ptr, ptr %src, align 8
  %iov_len52 = getelementptr %struct.iovec, ptr %12, i64 %indvars.iv59, i32 1
  %13 = load i64, ptr %iov_len52, align 8
  %14 = load i32, ptr %10, align 8
  %cmp.not.i = icmp eq i32 %14, -1
  br i1 %cmp.not.i, label %if.else.i, label %if.end.i

if.else.i:                                        ; preds = %for.body45
  tail call void @__assert_fail(ptr noundef nonnull @.str.5, ptr noundef nonnull @.str.1, i32 noundef 297, ptr noundef nonnull @__PRETTY_FUNCTION__.qemu_iovec_add) #17
  unreachable

if.end.i:                                         ; preds = %for.body45
  %15 = load i32, ptr %niov.i, align 8
  %cmp2.i = icmp eq i32 %15, %14
  %.pre.i = load ptr, ptr %dest, align 8
  br i1 %cmp2.i, label %if.then3.i, label %qemu_iovec_add.exit

if.then3.i:                                       ; preds = %if.end.i
  %mul.i = shl i32 %14, 1
  %add.i = or disjoint i32 %mul.i, 1
  store i32 %add.i, ptr %10, align 8
  %conv.i = sext i32 %add.i to i64
  %call.i = tail call ptr @g_realloc_n(ptr noundef %.pre.i, i64 noundef %conv.i, i64 noundef 16) #19
  store ptr %call.i, ptr %dest, align 8
  %.pre15.i = load i32, ptr %niov.i, align 8
  br label %qemu_iovec_add.exit

qemu_iovec_add.exit:                              ; preds = %if.end.i, %if.then3.i
  %16 = phi i32 [ %.pre15.i, %if.then3.i ], [ %15, %if.end.i ]
  %17 = phi ptr [ %call.i, %if.then3.i ], [ %.pre.i, %if.end.i ]
  %idxprom.i = sext i32 %16 to i64
  %arrayidx.i = getelementptr %struct.iovec, ptr %17, i64 %idxprom.i
  store ptr %11, ptr %arrayidx.i, align 8
  %18 = load ptr, ptr %dest, align 8
  %19 = load i32, ptr %niov.i, align 8
  %idxprom13.i = sext i32 %19 to i64
  %iov_len.i = getelementptr %struct.iovec, ptr %18, i64 %idxprom13.i, i32 1
  store i64 %13, ptr %iov_len.i, align 8
  %20 = load i64, ptr %size.i, align 8
  %add15.i = add i64 %20, %13
  store i64 %add15.i, ptr %size.i, align 8
  %21 = load i32, ptr %niov.i, align 8
  %inc.i = add i32 %21, 1
  store i32 %inc.i, ptr %niov.i, align 8
  %indvars.iv.next60 = add nuw nsw i64 %indvars.iv59, 1
  %22 = load i32, ptr %niov, align 8
  %23 = sext i32 %22 to i64
  %cmp43 = icmp slt i64 %indvars.iv.next60, %23
  br i1 %cmp43, label %for.body45, label %for.end55, !llvm.loop !24

for.end55:                                        ; preds = %qemu_iovec_add.exit, %for.end38
  tail call void @g_free(ptr noundef %call) #19
  ret void
}